target datalayout = "e-m:e-p270:32:32-p271:32:32-p272:64:64-i64:64-i128:128-f80:128-n8:16:32:64-S128"
target triple = "x86_64-pc-linux-gnu"

@PqCommBusy = internal global i8 0, align 1

; Function Attrs: nounwind uwtable
define internal i32 @socket_putmessage(i8 noundef signext %0, ptr noundef %1, i64 noundef %2) #0 {
  %4 = alloca i32, align 4
  %5 = alloca i8, align 1
  %6 = alloca ptr, align 8
  %7 = alloca i64, align 8
  %8 = alloca i32, align 4
  %9 = alloca i32, align 4
  store i8 %0, ptr %5, align 1
  store ptr %1, ptr %6, align 8
  store i64 %2, ptr %7, align 8
  call void @llvm.lifetime.start.p0(i64 4, ptr %8) #14
  %10 = load i8, ptr @PqCommBusy, align 1, !range !11, !noundef !12
  %11 = trunc i8 %10 to i1
  br i1 %11, label %12, label %13

12:                                               ; preds = %3
  store i32 0, ptr %4, align 4
  store i32 1, ptr %9, align 4
  br label %33

13:                                               ; preds = %3
  store i8 1, ptr @PqCommBusy, align 1
  %14 = call i32 @internal_putbytes(ptr noundef %5, i64 noundef 1)
  %15 = icmp ne i32 %14, 0
  br i1 %15, label %16, label %17

16:                                               ; preds = %13
  br label %32

17:                                               ; preds = %13
  %18 = load i64, ptr %7, align 8
  %19 = add i64 %18, 4
  %20 = trunc i64 %19 to i32
  %21 = call i32 @llvm.bswap.i32(i32 %20)
  store i32 %21, ptr %8, align 4
  %22 = call i32 @internal_putbytes(ptr noundef %8, i64 noundef 4)
  %23 = icmp ne i32 %22, 0
  br i1 %23, label %24, label %25

24:                                               ; preds = %17
  br label %32

25:                                               ; preds = %17
  %26 = load ptr, ptr %6, align 8
  %27 = load i64, ptr %7, align 8
  %28 = call i32 @internal_putbytes(ptr noundef %26, i64 noundef %27)
  %29 = icmp ne i32 %28, 0
  br i1 %29, label %30, label %31

30:                                               ; preds = %25
  br label %32

31:                                               ; preds = %25
  store i8 0, ptr @PqCommBusy, align 1
  store i32 0, ptr %4, align 4
  store i32 1, ptr %9, align 4
  br label %33

32:                                               ; preds = %30, %24, %16
  store i8 0, ptr @PqCommBusy, align 1
  store i32 -1, ptr %4, align 4
  store i32 1, ptr %9, align 4
  br label %33

33:                                               ; preds = %32, %31, %12
  call void @llvm.lifetime.end.p0(i64 4, ptr %8) #14
  %34 = load i32, ptr %4, align 4
  ret i32 %34
}