; Function Attrs: nounwind uwtable
define internal range(i32 -1, 1) i32 @socket_putmessage(i8 noundef signext %0, ptr noundef %1, i64 noundef %2) #0 {
  %4 = alloca i8, align 1
  %5 = alloca i32, align 4
  store i8 %0, ptr %4, align 1
  call void @llvm.lifetime.start.p0(i64 4, ptr nonnull %5) #21
  %.b3 = load i1, ptr @PqCommBusy, align 1
  br i1 %.b3, label %16, label %6

6:                                                ; preds = %3
  store i1 true, ptr @PqCommBusy, align 1
  %7 = call fastcc i32 @internal_putbytes(ptr noundef nonnull %4, i64 noundef 1)
  %.not = icmp eq i32 %7, 0
  br i1 %.not, label %8, label %15

8:                                                ; preds = %6
  %9 = trunc i64 %2 to i32
  %10 = add i32 %9, 4
  %11 = call i32 @llvm.bswap.i32(i32 %10)
  store i32 %11, ptr %5, align 4
  %12 = call fastcc i32 @internal_putbytes(ptr noundef nonnull %5, i64 noundef 4)
  %.not4 = icmp eq i32 %12, 0
  br i1 %.not4, label %13, label %15

13:                                               ; preds = %8
  %14 = call fastcc i32 @internal_putbytes(ptr noundef %1, i64 noundef %2)
  %.not5 = icmp eq i32 %14, 0
  br i1 %.not5, label %.sink.split, label %15

15:                                               ; preds = %13, %8, %6
  br label %.sink.split

.sink.split:                                      ; preds = %13, %15
  %.0.ph = phi i32 [ -1, %15 ], [ 0, %13 ]
  store i1 false, ptr @PqCommBusy, align 1
  br label %16

16:                                               ; preds = %.sink.split, %3
  %.0 = phi i32 [ 0, %3 ], [ %.0.ph, %.sink.split ]
  call void @llvm.lifetime.end.p0(i64 4, ptr nonnull %5) #21
  ret i32 %.0
}